target datalayout = "e-m:e-p270:32:32-p271:32:32-p272:64:64-i64:64-i128:128-f80:128-n8:16:32:64-S128"
target triple = "x86_64-pc-linux-gnu"

%"class.std::__cxx11::basic_string" = type { %"struct.std::__cxx11::basic_string<char>::_Alloc_hider", i64, %union.anon }
%"struct.std::__cxx11::basic_string<char>::_Alloc_hider" = type { ptr }
%union.anon = type { i64, [8 x i8] }
%"class.llvm::SmallVectorBase" = type { ptr, i32, i32 }
%"class.llvm::StringRef" = type { ptr, i64 }
%"struct.std::_Vector_base.31" = type { %"struct.std::_Vector_base<llvm::Record *, std::allocator<llvm::Record *>>::_Vector_impl" }
%"struct.std::_Vector_base<llvm::Record *, std::allocator<llvm::Record *>>::_Vector_impl" = type { %"struct.std::_Vector_base<llvm::Record *, std::allocator<llvm::Record *>>::_Vector_impl_data" }
%"struct.std::_Vector_base<llvm::Record *, std::allocator<llvm::Record *>>::_Vector_impl_data" = type { ptr, ptr, ptr }
%"class.llvm::Record" = type { ptr, %"class.llvm::SmallVector.35", %"class.llvm::SmallVector.40", %"class.llvm::SmallVector.42", %"class.llvm::SmallVector.47", %"class.llvm::SmallVector.52", %"class.llvm::SmallVector.57", %"class.llvm::SmallVector.62", %"class.llvm::SmallVector.67", ptr, ptr, i32, i32 }
%"class.llvm::SmallVector.35" = type { %"class.llvm::SmallVectorImpl.36", %"struct.llvm::SmallVectorStorage.39" }
%"class.llvm::SmallVectorImpl.36" = type { %"class.llvm::SmallVectorTemplateBase.37" }
%"class.llvm::SmallVectorTemplateBase.37" = type { %"class.llvm::SmallVectorTemplateCommon.38" }
%"class.llvm::SmallVectorTemplateCommon.38" = type { %"class.llvm::SmallVectorBase" }
%"struct.llvm::SmallVectorStorage.39" = type { [32 x i8] }
%"class.llvm::SmallVector.40" = type { %"class.llvm::SmallVectorImpl.36" }
%"class.llvm::SmallVector.42" = type { %"class.llvm::SmallVectorImpl.43" }
%"class.llvm::SmallVectorImpl.43" = type { %"class.llvm::SmallVectorTemplateBase.44" }
%"class.llvm::SmallVectorTemplateBase.44" = type { %"class.llvm::SmallVectorTemplateCommon.45" }
%"class.llvm::SmallVectorTemplateCommon.45" = type { %"class.llvm::SmallVectorBase" }
%"class.llvm::SmallVector.47" = type { %"class.llvm::SmallVectorImpl.48" }
%"class.llvm::SmallVectorImpl.48" = type { %"class.llvm::SmallVectorTemplateBase.49" }
%"class.llvm::SmallVectorTemplateBase.49" = type { %"class.llvm::SmallVectorTemplateCommon.50" }
%"class.llvm::SmallVectorTemplateCommon.50" = type { %"class.llvm::SmallVectorBase" }
%"class.llvm::SmallVector.52" = type { %"class.llvm::SmallVectorImpl.53" }
%"class.llvm::SmallVectorImpl.53" = type { %"class.llvm::SmallVectorTemplateBase.54" }
%"class.llvm::SmallVectorTemplateBase.54" = type { %"class.llvm::SmallVectorTemplateCommon.55" }
%"class.llvm::SmallVectorTemplateCommon.55" = type { %"class.llvm::SmallVectorBase" }
%"class.llvm::SmallVector.57" = type { %"class.llvm::SmallVectorImpl.58" }
%"class.llvm::SmallVectorImpl.58" = type { %"class.llvm::SmallVectorTemplateBase.59" }
%"class.llvm::SmallVectorTemplateBase.59" = type { %"class.llvm::SmallVectorTemplateCommon.60" }
%"class.llvm::SmallVectorTemplateCommon.60" = type { %"class.llvm::SmallVectorBase" }
%"class.llvm::SmallVector.62" = type { %"class.llvm::SmallVectorImpl.63" }
%"class.llvm::SmallVectorImpl.63" = type { %"class.llvm::SmallVectorTemplateBase.64" }
%"class.llvm::SmallVectorTemplateBase.64" = type { %"class.llvm::SmallVectorTemplateCommon.65" }
%"class.llvm::SmallVectorTemplateCommon.65" = type { %"class.llvm::SmallVectorBase" }
%"class.llvm::SmallVector.67" = type { %"class.llvm::SmallVectorImpl.68" }
%"class.llvm::SmallVectorImpl.68" = type { %"class.llvm::SmallVectorTemplateBase.69" }
%"class.llvm::SmallVectorTemplateBase.69" = type { %"class.llvm::SmallVectorTemplateCommon.70" }
%"class.llvm::SmallVectorTemplateCommon.70" = type { %"class.llvm::SmallVectorBase" }
%"class.llvm::StringMapImpl" = type { ptr, i32, i32, i32, i32 }
%"class.std::vector.30" = type { %"struct.std::_Vector_base.31" }
%"class.llvm::gi::PredicateMatcher.base" = type <{ ptr, i32, i32, i32 }>
%"class.llvm::gi::InstructionPredicateMatcher.base" = type { %"class.llvm::gi::PredicateMatcher.base" }
%"class.llvm::CodeGenInstruction" = type <{ ptr, %"class.llvm::StringRef", %"class.std::__cxx11::basic_string", %"class.llvm::CGIOperandList", %"class.std::vector.30", %"class.std::vector.30", i64, %"class.std::__cxx11::basic_string", i8, [7 x i8], ptr, i32, [4 x i8] }>
%"class.llvm::CGIOperandList" = type <{ ptr, i32, [4 x i8], %"class.std::vector.371", %"class.llvm::StringMap.376", i8, i8, i8, [5 x i8] }>
%"class.std::vector.371" = type { %"struct.std::_Vector_base.372" }
%"struct.std::_Vector_base.372" = type { %"struct.std::_Vector_base<llvm::CGIOperandList::OperandInfo, std::allocator<llvm::CGIOperandList::OperandInfo>>::_Vector_impl" }
%"struct.std::_Vector_base<llvm::CGIOperandList::OperandInfo, std::allocator<llvm::CGIOperandList::OperandInfo>>::_Vector_impl" = type { %"struct.std::_Vector_base<llvm::CGIOperandList::OperandInfo, std::allocator<llvm::CGIOperandList::OperandInfo>>::_Vector_impl_data" }
%"struct.std::_Vector_base<llvm::CGIOperandList::OperandInfo, std::allocator<llvm::CGIOperandList::OperandInfo>>::_Vector_impl_data" = type { ptr, ptr, ptr }
%"class.llvm::StringMap.376" = type { %"class.llvm::StringMapImpl" }
%"class.llvm::gi::InstructionOpcodeMatcher" = type { %"class.llvm::gi::InstructionPredicateMatcher.base", %"class.llvm::SmallVector.143" }
%"class.llvm::SmallVector.143" = type { %"class.llvm::SmallVectorImpl.144", %"struct.llvm::SmallVectorStorage.147" }
%"class.llvm::SmallVectorImpl.144" = type { %"class.llvm::SmallVectorTemplateBase.145" }
%"class.llvm::SmallVectorTemplateBase.145" = type { %"class.llvm::SmallVectorTemplateCommon.146" }
%"class.llvm::SmallVectorTemplateCommon.146" = type { %"class.llvm::SmallVectorBase" }
%"struct.llvm::SmallVectorStorage.147" = type { [16 x i8] }
%"class.llvm::StringInit" = type <{ %"class.llvm::TypedInit", %"class.llvm::StringRef", i32, [4 x i8] }>
%"class.llvm::TypedInit" = type { %"class.llvm::Init.base", ptr }
%"class.llvm::Init.base" = type <{ ptr, i8, i8 }>

; Function Attrs: mustprogress nounwind uwtable
define linkonce_odr hidden noundef ptr @_ZN4llvm16cast_convert_valINS_10StringInitEPNS_4InitES3_E4doitEPKS2_(ptr noundef %0) #1 comdat align 2 {
  %2 = alloca ptr, align 8
  store ptr %0, ptr %2, align 8
  %3 = load ptr, ptr %2, align 8
  ret ptr %3
}

; Function Attrs: mustprogress nounwind uwtable
define linkonce_odr hidden noundef ptr @_ZN4llvm8CastInfoINS_10StringInitEPNS_4InitEvE6doCastERKS3_(ptr noundef nonnull align 8 dereferenceable(8) %0) #1 comdat align 2 {
  %2 = alloca ptr, align 8
  store ptr %0, ptr %2, align 8
  %3 = load ptr, ptr %2, align 8
  %4 = load ptr, ptr %3, align 8
  %5 = call noundef ptr @_ZN4llvm16cast_convert_valINS_10StringInitEPNS_4InitES3_E4doitEPKS2_(ptr noundef %4)
  ret ptr %5
}

; Function Attrs: mustprogress nounwind uwtable
define linkonce_odr hidden { ptr, i64 } @_ZNK4llvm10StringInit8getValueEv(ptr noundef nonnull align 8 dereferenceable(44) %0) #1 comdat align 2 {
  %2 = alloca %"class.llvm::StringRef", align 8
  %3 = alloca ptr, align 8
  store ptr %0, ptr %3, align 8
  %4 = load ptr, ptr %3, align 8
  %5 = getelementptr inbounds nuw %"class.llvm::StringInit", ptr %4, i32 0, i32 1
  call void @llvm.memcpy.p0.p0.i64(ptr align 8 %2, ptr align 8 %5, i64 16, i1 false)
  %6 = load { ptr, i64 }, ptr %2, align 8
  ret { ptr, i64 } %6
}

; Function Attrs: mustprogress nounwind uwtable
define linkonce_odr hidden noundef ptr @_ZN4llvm4castINS_10StringInitENS_4InitEEEDcPT0_(ptr noundef %0) #1 comdat {
  %2 = alloca ptr, align 8
  store ptr %0, ptr %2, align 8
  %3 = call noundef ptr @_ZN4llvm8CastInfoINS_10StringInitEPNS_4InitEvE6doCastERKS3_(ptr noundef nonnull align 8 dereferenceable(8) %2)
  ret ptr %3
}

; Function Attrs: mustprogress nounwind uwtable
define linkonce_odr hidden noundef ptr @_ZNK4llvm25SmallVectorTemplateCommonIPKNS_18CodeGenInstructionEvE5beginEv(ptr noundef nonnull align 8 dereferenceable(16) %0) #1 comdat align 2 {
  %2 = alloca ptr, align 8
  store ptr %0, ptr %2, align 8
  %3 = load ptr, ptr %2, align 8
  %4 = getelementptr inbounds nuw %"class.llvm::SmallVectorBase", ptr %3, i32 0, i32 0
  %5 = load ptr, ptr %4, align 8
  ret ptr %5
}

; Function Attrs: mustprogress nounwind uwtable
define linkonce_odr hidden { ptr, i64 } @_ZNK4llvm6Record7getNameEv(ptr noundef nonnull align 8 dereferenceable(192) %0) #1 comdat align 2 {
  %2 = alloca %"class.llvm::StringRef", align 8
  %3 = alloca ptr, align 8
  store ptr %0, ptr %3, align 8
  %4 = load ptr, ptr %3, align 8
  %5 = getelementptr inbounds nuw %"class.llvm::Record", ptr %4, i32 0, i32 0
  %6 = load ptr, ptr %5, align 8
  %7 = call noundef ptr @_ZN4llvm4castINS_10StringInitENS_4InitEEEDcPT0_(ptr noundef %6)
  %8 = call { ptr, i64 } @_ZNK4llvm10StringInit8getValueEv(ptr noundef nonnull align 8 dereferenceable(44) %7)
  %9 = getelementptr inbounds nuw { ptr, i64 }, ptr %2, i32 0, i32 0
  %10 = extractvalue { ptr, i64 } %8, 0
  store ptr %10, ptr %9, align 8
  %11 = getelementptr inbounds nuw { ptr, i64 }, ptr %2, i32 0, i32 1
  %12 = extractvalue { ptr, i64 } %8, 1
  store i64 %12, ptr %11, align 8
  %13 = load { ptr, i64 }, ptr %2, align 8
  ret { ptr, i64 } %13
}

; Function Attrs: mustprogress nounwind uwtable
define linkonce_odr hidden noundef nonnull align 8 dereferenceable(8) ptr @_ZNK4llvm25SmallVectorTemplateCommonIPKNS_18CodeGenInstructionEvEixEm(ptr noundef nonnull align 8 dereferenceable(16) %0, i64 noundef %1) #1 comdat align 2 {
  %3 = alloca ptr, align 8
  %4 = alloca i64, align 8
  store ptr %0, ptr %3, align 8
  store i64 %1, ptr %4, align 8
  %5 = load ptr, ptr %3, align 8
  %6 = call noundef ptr @_ZNK4llvm25SmallVectorTemplateCommonIPKNS_18CodeGenInstructionEvE5beginEv(ptr noundef nonnull align 8 dereferenceable(16) %5)
  %7 = load i64, ptr %4, align 8
  %8 = getelementptr inbounds ptr, ptr %6, i64 %7
  ret ptr %8
}

; Function Attrs: mustprogress nounwind uwtable
define dso_local { ptr, i64 } @_ZNK4llvm2gi24InstructionOpcodeMatcher9getOpcodeEv(ptr noundef nonnull align 8 dereferenceable(56) %0) #1 align 2 {
  %2 = alloca %"class.llvm::StringRef", align 8
  %3 = alloca ptr, align 8
  store ptr %0, ptr %3, align 8
  %4 = load ptr, ptr %3, align 8
  %5 = getelementptr inbounds nuw %"class.llvm::gi::InstructionOpcodeMatcher", ptr %4, i32 0, i32 1
  %6 = call noundef nonnull align 8 dereferenceable(8) ptr @_ZNK4llvm25SmallVectorTemplateCommonIPKNS_18CodeGenInstructionEvEixEm(ptr noundef nonnull align 8 dereferenceable(16) %5, i64 noundef 0)
  %7 = load ptr, ptr %6, align 8
  %8 = getelementptr inbounds nuw %"class.llvm::CodeGenInstruction", ptr %7, i32 0, i32 0
  %9 = load ptr, ptr %8, align 8
  %10 = call { ptr, i64 } @_ZNK4llvm6Record7getNameEv(ptr noundef nonnull align 8 dereferenceable(192) %9)
  %11 = getelementptr inbounds nuw { ptr, i64 }, ptr %2, i32 0, i32 0
  %12 = extractvalue { ptr, i64 } %10, 0
  store ptr %12, ptr %11, align 8
  %13 = getelementptr inbounds nuw { ptr, i64 }, ptr %2, i32 0, i32 1
  %14 = extractvalue { ptr, i64 } %10, 1
  store i64 %14, ptr %13, align 8
  %15 = load { ptr, i64 }, ptr %2, align 8
  ret { ptr, i64 } %15
}